; Function Attrs: mustprogress uwtable
define void @_ZN2cv17cornerMinEigenValERKNS_11_InputArrayERKNS_12_OutputArrayEiii(ptr noundef nonnull align 8 dereferenceable(24) %0, ptr noundef nonnull align 8 dereferenceable(24) %1, i32 noundef %2, i32 noundef %3, i32 noundef %4) local_unnamed_addr #0 personality ptr @__gxx_personality_v0 {
  %6 = alloca %"class.cv::utils::trace::details::Region", align 8
  %7 = alloca %"class.cv::Mat", align 8
  %8 = alloca %"class.cv::Mat", align 8
  call void @llvm.lifetime.start.p0(i64 16, ptr nonnull %6) #13
  call void @_ZN2cv5utils5trace7details6RegionC1ERKNS3_21LocationStaticStorageE(ptr noundef nonnull align 8 dereferenceable(12) %6, ptr noundef nonnull align 8 dereferenceable(32) @_ZZN2cv17cornerMinEigenValERKNS_11_InputArrayERKNS_12_OutputArrayEiiiE25__cv_trace_location_fn552)
  call void @llvm.lifetime.start.p0(i64 96, ptr nonnull %7) #13
  %9 = invoke noundef i32 @_ZNK2cv11_InputArray4kindEv(ptr noundef nonnull align 8 dereferenceable(24) %0)
          to label %.noexc unwind label %35

.noexc:                                           ; preds = %5
  %10 = icmp eq i32 %9, 65536
  br i1 %10, label %11, label %14

11:                                               ; preds = %.noexc
  %12 = getelementptr inbounds nuw i8, ptr %0, i64 8
  %13 = load ptr, ptr %12, align 8, !tbaa !3, !noalias !10
  invoke void @_ZN2cv3MatC1ERKS0_(ptr noundef nonnull align 8 dereferenceable(96) %7, ptr noundef nonnull align 8 dereferenceable(96) %13)
          to label %15 unwind label %35

14:                                               ; preds = %.noexc
  invoke void @_ZNK2cv11_InputArray7getMat_Ei(ptr dead_on_unwind nonnull writable sret(%"class.cv::Mat") align 8 %7, ptr noundef nonnull align 8 dereferenceable(24) %0, i32 noundef -1)
          to label %15 unwind label %35

15:                                               ; preds = %14, %11
  %16 = getelementptr inbounds nuw i8, ptr %7, i64 64
  %17 = load ptr, ptr %16, align 8, !tbaa !13
  %18 = getelementptr inbounds nuw i8, ptr %17, i64 4
  %19 = load i32, ptr %18, align 4, !tbaa !16
  %20 = load i32, ptr %17, align 4, !tbaa !16
  %.sroa.2.0.insert.ext.i = zext i32 %20 to i64
  %.sroa.2.0.insert.shift.i = shl nuw i64 %.sroa.2.0.insert.ext.i, 32
  %.sroa.0.0.insert.ext.i = zext i32 %19 to i64
  %.sroa.0.0.insert.insert.i = or disjoint i64 %.sroa.2.0.insert.shift.i, %.sroa.0.0.insert.ext.i
  invoke void @_ZNK2cv12_OutputArray6createENS_5Size_IiEEiibNS0_9DepthMaskE(ptr noundef nonnull align 8 dereferenceable(24) %1, i64 %.sroa.0.0.insert.insert.i, i32 noundef 5, i32 noundef -1, i1 noundef zeroext false, i32 noundef 0)
          to label %21 unwind label %37

21:                                               ; preds = %15
  call void @llvm.lifetime.start.p0(i64 96, ptr nonnull %8) #13
  %22 = invoke noundef i32 @_ZNK2cv11_InputArray4kindEv(ptr noundef nonnull align 8 dereferenceable(24) %1)
          to label %.noexc15 unwind label %39

.noexc15:                                         ; preds = %21
  %23 = icmp eq i32 %22, 65536
  br i1 %23, label %24, label %27

24:                                               ; preds = %.noexc15
  %25 = getelementptr inbounds nuw i8, ptr %1, i64 8
  %26 = load ptr, ptr %25, align 8, !tbaa !3, !noalias !17
  invoke void @_ZN2cv3MatC1ERKS0_(ptr noundef nonnull align 8 dereferenceable(96) %8, ptr noundef nonnull align 8 dereferenceable(96) %26)
          to label %_ZNK2cv11_InputArray6getMatEi.exit18 unwind label %39

27:                                               ; preds = %.noexc15
  invoke void @_ZNK2cv11_InputArray7getMat_Ei(ptr dead_on_unwind nonnull writable sret(%"class.cv::Mat") align 8 %8, ptr noundef nonnull align 8 dereferenceable(24) %1, i32 noundef -1)
          to label %_ZNK2cv11_InputArray6getMatEi.exit18 unwind label %39

_ZNK2cv11_InputArray6getMatEi.exit18:             ; preds = %24, %27
  invoke fastcc void @_ZN2cvL19cornerEigenValsVecsERKNS_3MatERS0_iiidi(ptr noundef nonnull align 8 dereferenceable(96) %7, ptr noundef nonnull align 8 dereferenceable(96) %8, i32 noundef %2, i32 noundef %3, i32 noundef 0, double noundef 0.000000e+00, i32 noundef %4)
          to label %28 unwind label %41

28:                                               ; preds = %_ZNK2cv11_InputArray6getMatEi.exit18
  call void @_ZN2cv3MatD1Ev(ptr noundef nonnull align 8 dereferenceable(96) %8) #13
  call void @llvm.lifetime.end.p0(i64 96, ptr nonnull %8) #13
  call void @_ZN2cv3MatD1Ev(ptr noundef nonnull align 8 dereferenceable(96) %7) #13
  call void @llvm.lifetime.end.p0(i64 96, ptr nonnull %7) #13
  %29 = getelementptr inbounds nuw i8, ptr %6, i64 8
  %30 = load i32, ptr %29, align 8, !tbaa !20
  %.not.i = icmp eq i32 %30, 0
  br i1 %.not.i, label %_ZN2cv5utils5trace7details6RegionD2Ev.exit, label %31

31:                                               ; preds = %28
  invoke void @_ZN2cv5utils5trace7details6Region7destroyEv(ptr noundef nonnull align 8 dereferenceable(12) %6)
          to label %_ZN2cv5utils5trace7details6RegionD2Ev.exit unwind label %32

32:                                               ; preds = %31
  %33 = landingpad { ptr, i32 }
          catch ptr null
  %34 = extractvalue { ptr, i32 } %33, 0
  call void @__clang_call_terminate(ptr %34) #14
  unreachable

_ZN2cv5utils5trace7details6RegionD2Ev.exit:       ; preds = %28, %31
  call void @llvm.lifetime.end.p0(i64 16, ptr nonnull %6) #13
  ret void

35:                                               ; preds = %14, %11, %5
  %36 = landingpad { ptr, i32 }
          cleanup
  br label %45

37:                                               ; preds = %15
  %38 = landingpad { ptr, i32 }
          cleanup
  br label %44

39:                                               ; preds = %27, %24, %21
  %40 = landingpad { ptr, i32 }
          cleanup
  br label %43

41:                                               ; preds = %_ZNK2cv11_InputArray6getMatEi.exit18
  %42 = landingpad { ptr, i32 }
          cleanup
  call void @_ZN2cv3MatD1Ev(ptr noundef nonnull align 8 dereferenceable(96) %8) #13
  br label %43

43:                                               ; preds = %41, %39
  %.pn = phi { ptr, i32 } [ %42, %41 ], [ %40, %39 ]
  call void @llvm.lifetime.end.p0(i64 96, ptr nonnull %8) #13
  br label %44

44:                                               ; preds = %43, %37
  %.pn.pn = phi { ptr, i32 } [ %.pn, %43 ], [ %38, %37 ]
  call void @_ZN2cv3MatD1Ev(ptr noundef nonnull align 8 dereferenceable(96) %7) #13
  br label %45

45:                                               ; preds = %44, %35
  %.pn.pn.pn = phi { ptr, i32 } [ %.pn.pn, %44 ], [ %36, %35 ]
  call void @llvm.lifetime.end.p0(i64 96, ptr nonnull %7) #13
  call void @_ZN2cv5utils5trace7details6RegionD2Ev(ptr noundef nonnull align 8 dereferenceable(12) %6) #13
  call void @llvm.lifetime.end.p0(i64 16, ptr nonnull %6) #13
  resume { ptr, i32 } %.pn.pn.pn
}